; ModuleID = '50/556.c'
source_filename = "50/556.c"
target datalayout = "e-m:e-p270:32:32-p271:32:32-p272:64:64-i64:64-f80:128-n8:16:32:64-S128"
target triple = "x86_64-pc-linux-gnu"

@.str = private unnamed_addr constant [3 x i8] c"%d\00", align 1
@.str.1 = private unnamed_addr constant [3 x i8] c"1\0A\00", align 1
@.str.2 = private unnamed_addr constant [3 x i8] c"2\0A\00", align 1
@.str.3 = private unnamed_addr constant [3 x i8] c"3\0A\00", align 1
@.str.4 = private unnamed_addr constant [3 x i8] c"4\0A\00", align 1
@.str.5 = private unnamed_addr constant [3 x i8] c"5\0A\00", align 1
@.str.6 = private unnamed_addr constant [3 x i8] c"6\0A\00", align 1
@.str.7 = private unnamed_addr constant [3 x i8] c"7\0A\00", align 1
@.str.8 = private unnamed_addr constant [3 x i8] c"8\0A\00", align 1
@.str.9 = private unnamed_addr constant [3 x i8] c"9\0A\00", align 1
@.str.10 = private unnamed_addr constant [4 x i8] c"10\0A\00", align 1
@.str.11 = private unnamed_addr constant [4 x i8] c"11\0A\00", align 1
@.str.12 = private unnamed_addr constant [4 x i8] c"12\0A\00", align 1

; Function Attrs: noinline nounwind uwtable
define dso_local i32 @main() #0 {
  %1 = alloca i32, align 4
  %2 = alloca i32, align 4
  %3 = alloca i32, align 4
  %4 = alloca i32, align 4
  %5 = alloca i32, align 4
  %6 = alloca i32, align 4
  %7 = alloca i32, align 4
  %8 = alloca i32, align 4
  %9 = alloca i32, align 4
  %10 = alloca i32, align 4
  %11 = alloca i32, align 4
  %12 = alloca i32, align 4
  %13 = alloca i32, align 4
  %14 = alloca i32, align 4
  store i32 0, i32* %1, align 4
  %15 = call i32 (i8*, ...) @__isoc99_scanf(i8* getelementptr inbounds ([3 x i8], [3 x i8]* @.str, i64 0, i64 0), i32* %2)
  %16 = load i32, i32* %2, align 4
  %17 = add nsw i32 13, %16
  %18 = sub nsw i32 %17, 1
  %19 = srem i32 %18, 7
  store i32 %19, i32* %3, align 4
  %20 = load i32, i32* %3, align 4
  %21 = icmp eq i32 %20, 5
  br i1 %21, label %22, label %24

22:                                               ; preds = %0
  %23 = call i32 (i8*, ...) @printf(i8* getelementptr inbounds ([3 x i8], [3 x i8]* @.str.1, i64 0, i64 0))
  br label %24

24:                                               ; preds = %22, %0
  %25 = load i32, i32* %2, align 4
  %26 = add nsw i32 44, %25
  %27 = sub nsw i32 %26, 1
  %28 = srem i32 %27, 7
  store i32 %28, i32* %4, align 4
  %29 = load i32, i32* %4, align 4
  %30 = icmp eq i32 %29, 5
  br i1 %30, label %31, label %33

31:                                               ; preds = %24
  %32 = call i32 (i8*, ...) @printf(i8* getelementptr inbounds ([3 x i8], [3 x i8]* @.str.2, i64 0, i64 0))
  br label %33

33:                                               ; preds = %31, %24
  %34 = load i32, i32* %2, align 4
  %35 = add nsw i32 72, %34
  %36 = sub nsw i32 %35, 1
  %37 = srem i32 %36, 7
  store i32 %37, i32* %5, align 4
  %38 = load i32, i32* %5, align 4
  %39 = icmp eq i32 %38, 5
  br i1 %39, label %40, label %42

40:                                               ; preds = %33
  %41 = call i32 (i8*, ...) @printf(i8* getelementptr inbounds ([3 x i8], [3 x i8]* @.str.3, i64 0, i64 0))
  br label %42

42:                                               ; preds = %40, %33
  %43 = load i32, i32* %2, align 4
  %44 = add nsw i32 103, %43
  %45 = sub nsw i32 %44, 1
  %46 = srem i32 %45, 7
  store i32 %46, i32* %6, align 4
  %47 = load i32, i32* %6, align 4
  %48 = icmp eq i32 %47, 5
  br i1 %48, label %49, label %51

49:                                               ; preds = %42
  %50 = call i32 (i8*, ...) @printf(i8* getelementptr inbounds ([3 x i8], [3 x i8]* @.str.4, i64 0, i64 0))
  br label %51

51:                                               ; preds = %49, %42
  %52 = load i32, i32* %2, align 4
  %53 = add nsw i32 133, %52
  %54 = sub nsw i32 %53, 1
  %55 = srem i32 %54, 7
  store i32 %55, i32* %7, align 4
  %56 = load i32, i32* %7, align 4
  %57 = icmp eq i32 %56, 5
  br i1 %57, label %58, label %60

58:                                               ; preds = %51
  %59 = call i32 (i8*, ...) @printf(i8* getelementptr inbounds ([3 x i8], [3 x i8]* @.str.5, i64 0, i64 0))
  br label %60

60:                                               ; preds = %58, %51
  %61 = load i32, i32* %2, align 4
  %62 = add nsw i32 164, %61
  %63 = sub nsw i32 %62, 1
  %64 = srem i32 %63, 7
  store i32 %64, i32* %8, align 4
  %65 = load i32, i32* %8, align 4
  %66 = icmp eq i32 %65, 5
  br i1 %66, label %67, label %69

67:                                               ; preds = %60
  %68 = call i32 (i8*, ...) @printf(i8* getelementptr inbounds ([3 x i8], [3 x i8]* @.str.6, i64 0, i64 0))
  br label %69

69:                                               ; preds = %67, %60
  %70 = load i32, i32* %2, align 4
  %71 = add nsw i32 194, %70
  %72 = sub nsw i32 %71, 1
  %73 = srem i32 %72, 7
  store i32 %73, i32* %9, align 4
  %74 = load i32, i32* %9, align 4
  %75 = icmp eq i32 %74, 5
  br i1 %75, label %76, label %78

76:                                               ; preds = %69
  %77 = call i32 (i8*, ...) @printf(i8* getelementptr inbounds ([3 x i8], [3 x i8]* @.str.7, i64 0, i64 0))
  br label %78

78:                                               ; preds = %76, %69
  %79 = load i32, i32* %2, align 4
  %80 = add nsw i32 225, %79
  %81 = sub nsw i32 %80, 1
  %82 = srem i32 %81, 7
  store i32 %82, i32* %10, align 4
  %83 = load i32, i32* %10, align 4
  %84 = icmp eq i32 %83, 5
  br i1 %84, label %85, label %87

85:                                               ; preds = %78
  %86 = call i32 (i8*, ...) @printf(i8* getelementptr inbounds ([3 x i8], [3 x i8]* @.str.8, i64 0, i64 0))
  br label %87

87:                                               ; preds = %85, %78
  %88 = load i32, i32* %2, align 4
  %89 = add nsw i32 256, %88
  %90 = sub nsw i32 %89, 1
  %91 = srem i32 %90, 7
  store i32 %91, i32* %11, align 4
  %92 = load i32, i32* %11, align 4
  %93 = icmp eq i32 %92, 5
  br i1 %93, label %94, label %96

94:                                               ; preds = %87
  %95 = call i32 (i8*, ...) @printf(i8* getelementptr inbounds ([3 x i8], [3 x i8]* @.str.9, i64 0, i64 0))
  br label %96

96:                                               ; preds = %94, %87
  %97 = load i32, i32* %2, align 4
  %98 = add nsw i32 286, %97
  %99 = sub nsw i32 %98, 1
  %100 = srem i32 %99, 7
  store i32 %100, i32* %12, align 4
  %101 = load i32, i32* %12, align 4
  %102 = icmp eq i32 %101, 5
  br i1 %102, label %103, label %105

103:                                              ; preds = %96
  %104 = call i32 (i8*, ...) @printf(i8* getelementptr inbounds ([4 x i8], [4 x i8]* @.str.10, i64 0, i64 0))
  br label %105

105:                                              ; preds = %103, %96
  %106 = load i32, i32* %2, align 4
  %107 = add nsw i32 317, %106
  %108 = sub nsw i32 %107, 1
  %109 = srem i32 %108, 7
  store i32 %109, i32* %13, align 4
  %110 = load i32, i32* %13, align 4
  %111 = icmp eq i32 %110, 5
  br i1 %111, label %112, label %114

112:                                              ; preds = %105
  %113 = call i32 (i8*, ...) @printf(i8* getelementptr inbounds ([4 x i8], [4 x i8]* @.str.11, i64 0, i64 0))
  br label %114

114:                                              ; preds = %112, %105
  %115 = load i32, i32* %2, align 4
  %116 = add nsw i32 347, %115
  %117 = sub nsw i32 %116, 1
  %118 = srem i32 %117, 7
  store i32 %118, i32* %14, align 4
  %119 = load i32, i32* %14, align 4
  %120 = icmp eq i32 %119, 5
  br i1 %120, label %121, label %123

121:                                              ; preds = %114
  %122 = call i32 (i8*, ...) @printf(i8* getelementptr inbounds ([4 x i8], [4 x i8]* @.str.12, i64 0, i64 0))
  br label %123

123:                                              ; preds = %121, %114
  ret i32 0
}

declare dso_local i32 @__isoc99_scanf(i8*, ...) #1

declare dso_local i32 @printf(i8*, ...) #1


!llvm.module.flags = !{!0}
!llvm.ident = !{!1}

!0 = !{i32 1, !"wchar_size", i32 4}
!1 = !{!"clang version 10.0.0-4ubuntu1 "}
